

Microchip MPLAB XC8 Assembler V2.10 build 88905656 
                                                                                               Tue Apr 14 11:45:05 2020

Microchip MPLAB XC8 C Compiler v2.10 (Free license) build 20190730164152 Og1 
     1                           	processor	18F25K50
     2                           	fnconf	rparam,??,?,0
     3                           	opt	pw 120
     4                           	opt	flic
     5                           	psect	idataCOMRAM,global,class=CODE,delta=1,noexec
     6                           	psect	cinit,global,reloc=2,class=CODE,delta=1
     7                           	psect	bssCOMRAM,global,class=COMRAM,space=1,delta=1,noexec
     8                           	psect	dataCOMRAM,global,class=COMRAM,space=1,delta=1,noexec
     9                           	psect	cstackCOMRAM,global,class=COMRAM,space=1,delta=1,noexec
    10                           	psect	text0,global,reloc=2,class=CODE,delta=1
    11                           	psect	text1,global,reloc=2,class=CODE,delta=1
    12                           	psect	text2,global,reloc=2,class=CODE,delta=1
    13                           	psect	text3,global,reloc=2,class=CODE,delta=1
    14                           	psect	text4,global,reloc=2,class=CODE,delta=1
    15                           	psect	text5,global,reloc=2,class=CODE,delta=1
    16                           	psect	intcode,global,reloc=2,class=CODE,delta=1
    17                           	psect	intsave_regs,global,class=BIGRAM,space=1,delta=1,noexec
    18                           	psect	rparam,global,class=COMRAM,space=1,delta=1,noexec
    19                           	psect	temp,global,ovrld,common,class=COMRAM,space=1,delta=1
    20  0000                     
    21                           ; Version 2.10
    22                           ; Generated 31/07/2019 GMT
    23                           ; 
    24                           ; Copyright © 2019, Microchip Technology Inc. and its subsidiaries ("Microchip")
    25                           ; All rights reserved.
    26                           ; 
    27                           ; This software is developed by Microchip Technology Inc. and its subsidiaries ("Microch
      +                          ip").
    28                           ; 
    29                           ; Redistribution and use in source and binary forms, with or without modification, are
    30                           ; permitted provided that the following conditions are met:
    31                           ; 
    32                           ;     1. Redistributions of source code must retain the above copyright notice, this lis
      +                          t of
    33                           ;        conditions and the following disclaimer.
    34                           ; 
    35                           ;     2. Redistributions in binary form must reproduce the above copyright notice, this 
      +                          list
    36                           ;        of conditions and the following disclaimer in the documentation and/or other
    37                           ;        materials provided with the distribution.
    38                           ; 
    39                           ;     3. Microchip's name may not be used to endorse or promote products derived from th
      +                          is
    40                           ;        software without specific prior written permission.
    41                           ; 
    42                           ; THIS SOFTWARE IS PROVIDED BY MICROCHIP "AS IS" AND ANY EXPRESS OR IMPLIED WARRANTIES,
    43                           ; INCLUDING, BUT NOT LIMITED TO, THE IMPLIED WARRANTIES OF MERCHANTABILITY AND FITNESS F
      +                          OR
    44                           ; PURPOSE ARE DISCLAIMED.  IN NO EVENT SHALL MICROCHIP BE LIABLE FOR ANY DIRECT, INDIREC
      +                          T,
    45                           ; INCIDENTAL, SPECIAL, EXEMPLARY, OR CONSEQUENTIAL DAMAGES (INCLUDING BUT NOT LIMITED TO
    46                           ; PROCUREMENT OF SUBSTITUTE GOODS OR SERVICES; LOSS OF USE, DATA OR PROFITS; OR BUSINESS
    47                           ; INTERRUPTION) HOWSOEVER CAUSED AND ON ANY THEORY OF LIABILITY, WHETHER IN CONTRACT, ST
      +                          RICT
    48                           ; LIABILITY, OR TORT (INCLUDING NEGLIGENCE OR OTHERWISE) ARISING IN ANY WAY OUT OF THE U
      +                          SE OF
    49                           ; THIS SOFTWARE, EVEN IF ADVISED OF THE POSSIBILITY OF SUCH DAMAGE.
    50                           ; 
    51                           ; 
    52                           ; Code-generator required, PIC18F25K50 Definitions
    53                           ; 
    54                           ; SFR Addresses
    55  0000                     
    56                           	psect	idataCOMRAM
    57  001282                     __pidataCOMRAM:
    58                           	opt callstack 0
    59                           
    60                           ;initializer for _T0Thres
    61  001282  0A                 	db	10
    62                           
    63                           ;initializer for _sent
    64  001283  11                 	db	17
    65  0000                     _ANSELA	set	3931
    66  0000                     _LATBbits	set	3978
    67  0000                     _PORTA	set	3968
    68  0000                     _ADRESH	set	4036
    69  0000                     _SSPCON1bits	set	4038
    70  0000                     _SSPSTATbits	set	4039
    71  0000                     _SSPBUF	set	4041
    72  0000                     _PIR1bits	set	3998
    73  0000                     _TMR0L	set	4054
    74  0000                     _TMR0H	set	4055
    75  0000                     _T0CON	set	4053
    76  0000                     _TMR2	set	4028
    77  0000                     _T2CON	set	4026
    78  0000                     _PR2	set	4027
    79  0000                     _ADCON2	set	4032
    80  0000                     _ADCON0	set	4034
    81  0000                     _LATCbits	set	3979
    82  0000                     _PIE1bits	set	3997
    83  0000                     _SSPCON2	set	4037
    84  0000                     _SSPSTAT	set	4039
    85  0000                     _SSPCON1	set	4038
    86  0000                     _SSPADD	set	4040
    87  0000                     _TRISBbits	set	3987
    88  0000                     _TRISC	set	3988
    89  0000                     _LATC	set	3979
    90  0000                     _TRISB	set	3987
    91  0000                     _CM1CON0	set	3992
    92  0000                     _ADCON1	set	4033
    93  0000                     _TRISA	set	3986
    94  0000                     _ADCON0bits	set	4034
    95  0000                     _T0CONbits	set	4053
    96  0000                     _T2CONbits	set	4026
    97  0000                     _LATA	set	3977
    98  0000                     _LATB	set	3978
    99  0000                     _INTCONbits	set	4082
   100                           
   101                           ; #config settings
   102                           
   103                           	psect	cinit
   104  0011E0                     __pcinit:
   105                           	opt callstack 0
   106  0011E0                     start_initialization:
   107                           	opt callstack 0
   108  0011E0                     __initialization:
   109                           	opt callstack 0
   110                           
   111                           ; Initialize objects allocated to COMRAM (2 bytes)
   112                           ; load TBLPTR registers with __pidataCOMRAM
   113  0011E0  0E82               	movlw	low __pidataCOMRAM
   114  0011E2  6EF6               	movwf	tblptrl,c
   115  0011E4  0E12               	movlw	high __pidataCOMRAM
   116  0011E6  6EF7               	movwf	tblptrh,c
   117  0011E8  0E00               	movlw	low (__pidataCOMRAM shr (0+16))
   118  0011EA  6EF8               	movwf	tblptru,c
   119  0011EC  0009               	tblrd		*+	;fetch initializer
   120  0011EE  CFF5 F011          	movff	tablat,__pdataCOMRAM
   121  0011F2  0009               	tblrd		*+	;fetch initializer
   122  0011F4  CFF5 F012          	movff	tablat,__pdataCOMRAM+1
   123                           
   124                           ; Clear objects allocated to COMRAM (12 bytes)
   125  0011F8  EE00  F001         	lfsr	0,__pbssCOMRAM
   126  0011FC  0E0C               	movlw	12
   127  0011FE                     clear_0:
   128  0011FE  6AEE               	clrf	postinc0,c
   129  001200  06E8               	decf	wreg,f,c
   130  001202  E1FD               	bnz	clear_0
   131  001204                     end_of_initialization:
   132                           	opt callstack 0
   133  001204                     __end_of__initialization:
   134                           	opt callstack 0
   135  001204  9013               	bcf	int$flags,0,c	;clear compiler interrupt flag (level 1)
   136  001206  9213               	bcf	int$flags,1,c	;clear compiler interrupt flag (level 2)
   137  001208  0100               	movlb	0
   138  00120A  EFD2  F008         	goto	_main	;jump to C main() function
   139                           
   140                           	psect	bssCOMRAM
   141  000001                     __pbssCOMRAM:
   142                           	opt callstack 0
   143  000001                     _Rxbuf:
   144                           	opt callstack 0
   145  000001                     	ds	3
   146  000004                     _Txbuf:
   147                           	opt callstack 0
   148  000004                     	ds	3
   149  000007                     _I2Cstatus:
   150                           	opt callstack 0
   151  000007                     	ds	1
   152  000008                     _T0count:
   153                           	opt callstack 0
   154  000008                     	ds	1
   155  000009                     _RxStatus:
   156                           	opt callstack 0
   157  000009                     	ds	1
   158  00000A                     _data_past:
   159                           	opt callstack 0
   160  00000A                     	ds	1
   161  00000B                     _addr:
   162                           	opt callstack 0
   163  00000B                     	ds	1
   164  00000C                     _data:
   165                           	opt callstack 0
   166  00000C                     	ds	1
   167                           
   168                           	psect	dataCOMRAM
   169  000011                     __pdataCOMRAM:
   170                           	opt callstack 0
   171  000011                     _T0Thres:
   172                           	opt callstack 0
   173  000011                     	ds	1
   174  000012                     _sent:
   175                           	opt callstack 0
   176  000012                     	ds	1
   177                           
   178                           	psect	cstackCOMRAM
   179  00000D                     __pcstackCOMRAM:
   180                           	opt callstack 0
   181  00000D                     ??_high_ISR:
   182                           
   183                           ; 1 bytes @ 0x0
   184  00000D                     	ds	4
   185  000011                     
   186                           ; 1 bytes @ 0x4
   187 ;;
   188 ;;Main: autosize = 0, tempsize = 0, incstack = 0, save=0
   189 ;;
   190 ;; *************** function _main *****************
   191 ;; Defined at:
   192 ;;		line 58 in file "I2C_slave.c"
   193 ;; Parameters:    Size  Location     Type
   194 ;;		None
   195 ;; Auto vars:     Size  Location     Type
   196 ;;		None
   197 ;; Return value:  Size  Location     Type
   198 ;;                  1    wreg      void 
   199 ;; Registers used:
   200 ;;		wreg, status,2, cstack
   201 ;; Tracked objects:
   202 ;;		On entry : 0/0
   203 ;;		On exit  : 0/0
   204 ;;		Unchanged: 0/0
   205 ;; Data sizes:     COMRAM   BANK0   BANK1   BANK2   BANK3   BANK4   BANK5   BANK6   BANK7
   206 ;;      Params:         0       0       0       0       0       0       0       0       0
   207 ;;      Locals:         0       0       0       0       0       0       0       0       0
   208 ;;      Temps:          0       0       0       0       0       0       0       0       0
   209 ;;      Totals:         0       0       0       0       0       0       0       0       0
   210 ;;Total ram usage:        0 bytes
   211 ;; Hardware stack levels required when called:    2
   212 ;; This function calls:
   213 ;;		_init_ADC
   214 ;;		_init_Chip
   215 ;;		_init_I2C
   216 ;;		_init_TM0
   217 ;;		_init_TM2
   218 ;; This function is called by:
   219 ;;		Startup code after reset
   220 ;; This function uses a non-reentrant model
   221 ;;
   222                           
   223                           	psect	text0
   224  0011A4                     __ptext0:
   225                           	opt callstack 0
   226  0011A4                     _main:
   227                           	opt callstack 29
   228  0011A4                     
   229                           ;I2C_slave.c: 60:     init_Chip();
   230  0011A4  EC07  F009         	call	_init_Chip	;wreg free
   231                           
   232                           ;I2C_slave.c: 61:     init_I2C();
   233  0011A8  EC1B  F009         	call	_init_I2C	;wreg free
   234                           
   235                           ;I2C_slave.c: 62:     init_ADC();
   236  0011AC  EC3A  F009         	call	_init_ADC	;wreg free
   237                           
   238                           ;I2C_slave.c: 63:     init_TM2();
   239  0011B0  EC28  F009         	call	_init_TM2	;wreg free
   240                           
   241                           ;I2C_slave.c: 64:     init_TM0();
   242  0011B4  EC31  F009         	call	_init_TM0	;wreg free
   243  0011B8                     
   244                           ;I2C_slave.c: 67:     Txbuf.idx = 0;
   245  0011B8  0E00               	movlw	0
   246  0011BA  6E06               	movwf	(_Txbuf+2)^0,c
   247  0011BC                     
   248                           ;I2C_slave.c: 68:     Rxbuf.idx = 0;
   249  0011BC  0E00               	movlw	0
   250  0011BE  6E03               	movwf	(_Rxbuf+2)^0,c
   251  0011C0                     
   252                           ;I2C_slave.c: 70:     INTCONbits.GIE = 1;
   253  0011C0  8EF2               	bsf	242,7,c	;volatile
   254  0011C2                     
   255                           ;I2C_slave.c: 71:     LATB = 0;
   256  0011C2  0E00               	movlw	0
   257  0011C4  6E8A               	movwf	138,c	;volatile
   258  0011C6                     
   259                           ;I2C_slave.c: 72:     LATA = 0;
   260  0011C6  0E00               	movlw	0
   261  0011C8  6E89               	movwf	137,c	;volatile
   262  0011CA                     
   263                           ;I2C_slave.c: 73:     T2CONbits.TMR2ON = 1;
   264  0011CA  84BA               	bsf	186,2,c	;volatile
   265  0011CC                     
   266                           ;I2C_slave.c: 74:     T0CONbits.TMR0ON = 1;
   267  0011CC  8ED5               	bsf	213,7,c	;volatile
   268  0011CE                     l867:
   269                           
   270                           ;I2C_slave.c: 76:     {;I2C_slave.c: 77:         _delay((unsigned long)((100)*(48000000/
      +                          4000000.0)));
   271  0011CE  0EF0               	movlw	240
   272  0011D0                     u147:
   273  0011D0  D000               	nop2	
   274  0011D2  2EE8               	decfsz	wreg,f,c
   275  0011D4  D7FD               	bra	u147
   276  0011D6                     
   277                           ;I2C_slave.c: 78:         ADCON0bits.GODONE = 1;
   278  0011D6  82C2               	bsf	194,1,c	;volatile
   279  0011D8  EFE7  F008         	goto	l867
   280  0011DC  EFD0  F008         	goto	start
   281  0011E0                     __end_of_main:
   282                           	opt callstack 0
   283                           
   284 ;; *************** function _init_TM2 *****************
   285 ;; Defined at:
   286 ;;		line 129 in file "I2C_slave.c"
   287 ;; Parameters:    Size  Location     Type
   288 ;;		None
   289 ;; Auto vars:     Size  Location     Type
   290 ;;		None
   291 ;; Return value:  Size  Location     Type
   292 ;;                  1    wreg      void 
   293 ;; Registers used:
   294 ;;		wreg, status,2
   295 ;; Tracked objects:
   296 ;;		On entry : 0/0
   297 ;;		On exit  : 0/0
   298 ;;		Unchanged: 0/0
   299 ;; Data sizes:     COMRAM   BANK0   BANK1   BANK2   BANK3   BANK4   BANK5   BANK6   BANK7
   300 ;;      Params:         0       0       0       0       0       0       0       0       0
   301 ;;      Locals:         0       0       0       0       0       0       0       0       0
   302 ;;      Temps:          0       0       0       0       0       0       0       0       0
   303 ;;      Totals:         0       0       0       0       0       0       0       0       0
   304 ;;Total ram usage:        0 bytes
   305 ;; Hardware stack levels used:    1
   306 ;; Hardware stack levels required when called:    1
   307 ;; This function calls:
   308 ;;		Nothing
   309 ;; This function is called by:
   310 ;;		_main
   311 ;; This function uses a non-reentrant model
   312 ;;
   313                           
   314                           	psect	text1
   315  001250                     __ptext1:
   316                           	opt callstack 0
   317  001250                     _init_TM2:
   318                           	opt callstack 29
   319  001250                     
   320                           ;I2C_slave.c: 132:     PR2 = 0xff;
   321  001250  68BB               	setf	187,c	;volatile
   322  001252                     
   323                           ;I2C_slave.c: 134:     T2CON = 0x79;
   324  001252  0E79               	movlw	121
   325  001254  6EBA               	movwf	186,c	;volatile
   326  001256                     
   327                           ;I2C_slave.c: 135:     PIE1bits.TMR2IE = 1;
   328  001256  829D               	bsf	157,1,c	;volatile
   329                           
   330                           ;I2C_slave.c: 136:     TMR2 = 0;
   331  001258  0E00               	movlw	0
   332  00125A  6EBC               	movwf	188,c	;volatile
   333                           
   334                           ;I2C_slave.c: 137:     T2CONbits.T2OUTPS = 0x0f;
   335  00125C  0E78               	movlw	120
   336  00125E  12BA               	iorwf	186,f,c	;volatile
   337  001260  0012               	return		;funcret
   338  001262                     __end_of_init_TM2:
   339                           	opt callstack 0
   340                           
   341 ;; *************** function _init_TM0 *****************
   342 ;; Defined at:
   343 ;;		line 141 in file "I2C_slave.c"
   344 ;; Parameters:    Size  Location     Type
   345 ;;		None
   346 ;; Auto vars:     Size  Location     Type
   347 ;;		None
   348 ;; Return value:  Size  Location     Type
   349 ;;                  1    wreg      void 
   350 ;; Registers used:
   351 ;;		wreg, status,2
   352 ;; Tracked objects:
   353 ;;		On entry : 0/0
   354 ;;		On exit  : 0/0
   355 ;;		Unchanged: 0/0
   356 ;; Data sizes:     COMRAM   BANK0   BANK1   BANK2   BANK3   BANK4   BANK5   BANK6   BANK7
   357 ;;      Params:         0       0       0       0       0       0       0       0       0
   358 ;;      Locals:         0       0       0       0       0       0       0       0       0
   359 ;;      Temps:          0       0       0       0       0       0       0       0       0
   360 ;;      Totals:         0       0       0       0       0       0       0       0       0
   361 ;;Total ram usage:        0 bytes
   362 ;; Hardware stack levels used:    1
   363 ;; Hardware stack levels required when called:    1
   364 ;; This function calls:
   365 ;;		Nothing
   366 ;; This function is called by:
   367 ;;		_main
   368 ;; This function uses a non-reentrant model
   369 ;;
   370                           
   371                           	psect	text2
   372  001262                     __ptext2:
   373                           	opt callstack 0
   374  001262                     _init_TM0:
   375                           	opt callstack 29
   376  001262                     
   377                           ;I2C_slave.c: 143:     T0CON = 0x43;
   378  001262  0E43               	movlw	67
   379  001264  6ED5               	movwf	213,c	;volatile
   380                           
   381                           ;I2C_slave.c: 144:     TMR0H = 0x4C;
   382  001266  0E4C               	movlw	76
   383  001268  6ED7               	movwf	215,c	;volatile
   384                           
   385                           ;I2C_slave.c: 145:     TMR0L = 0xB0;
   386  00126A  0EB0               	movlw	176
   387  00126C  6ED6               	movwf	214,c	;volatile
   388  00126E                     
   389                           ;I2C_slave.c: 146:     INTCONbits.TMR0IF = 0;
   390  00126E  94F2               	bcf	242,2,c	;volatile
   391  001270                     
   392                           ;I2C_slave.c: 147:     INTCONbits.TMR0IE = 1;
   393  001270  8AF2               	bsf	242,5,c	;volatile
   394  001272  0012               	return		;funcret
   395  001274                     __end_of_init_TM0:
   396                           	opt callstack 0
   397                           
   398 ;; *************** function _init_I2C *****************
   399 ;; Defined at:
   400 ;;		line 100 in file "I2C_slave.c"
   401 ;; Parameters:    Size  Location     Type
   402 ;;		None
   403 ;; Auto vars:     Size  Location     Type
   404 ;;		None
   405 ;; Return value:  Size  Location     Type
   406 ;;                  1    wreg      void 
   407 ;; Registers used:
   408 ;;		wreg, status,2
   409 ;; Tracked objects:
   410 ;;		On entry : 0/0
   411 ;;		On exit  : 0/0
   412 ;;		Unchanged: 0/0
   413 ;; Data sizes:     COMRAM   BANK0   BANK1   BANK2   BANK3   BANK4   BANK5   BANK6   BANK7
   414 ;;      Params:         0       0       0       0       0       0       0       0       0
   415 ;;      Locals:         0       0       0       0       0       0       0       0       0
   416 ;;      Temps:          0       0       0       0       0       0       0       0       0
   417 ;;      Totals:         0       0       0       0       0       0       0       0       0
   418 ;;Total ram usage:        0 bytes
   419 ;; Hardware stack levels used:    1
   420 ;; Hardware stack levels required when called:    1
   421 ;; This function calls:
   422 ;;		Nothing
   423 ;; This function is called by:
   424 ;;		_main
   425 ;; This function uses a non-reentrant model
   426 ;;
   427                           
   428                           	psect	text3
   429  001236                     __ptext3:
   430                           	opt callstack 0
   431  001236                     _init_I2C:
   432                           	opt callstack 29
   433  001236                     
   434                           ;I2C_slave.c: 103:     TRISBbits.TRISB0 = 1;
   435  001236  8093               	bsf	147,0,c	;volatile
   436                           
   437                           ;I2C_slave.c: 104:     TRISBbits.TRISB1 = 1;
   438  001238  8293               	bsf	147,1,c	;volatile
   439  00123A                     
   440                           ;I2C_slave.c: 106:     SSPADD = 0x30;
   441  00123A  0E30               	movlw	48
   442  00123C  6EC8               	movwf	200,c	;volatile
   443                           
   444                           ;I2C_slave.c: 107:     SSPCON1 = 0x36;
   445  00123E  0E36               	movlw	54
   446  001240  6EC6               	movwf	198,c	;volatile
   447                           
   448                           ;I2C_slave.c: 108:     SSPSTAT = 0x80;
   449  001242  0E80               	movlw	128
   450  001244  6EC7               	movwf	199,c	;volatile
   451                           
   452                           ;I2C_slave.c: 109:     SSPCON2 = 0x01;
   453  001246  0E01               	movlw	1
   454  001248  6EC5               	movwf	197,c	;volatile
   455  00124A                     
   456                           ;I2C_slave.c: 111:     PIE1bits.SSPIE = 1;
   457  00124A  869D               	bsf	157,3,c	;volatile
   458  00124C                     
   459                           ;I2C_slave.c: 112:     INTCONbits.PEIE = 1;
   460  00124C  8CF2               	bsf	242,6,c	;volatile
   461  00124E  0012               	return		;funcret
   462  001250                     __end_of_init_I2C:
   463                           	opt callstack 0
   464                           
   465 ;; *************** function _init_Chip *****************
   466 ;; Defined at:
   467 ;;		line 86 in file "I2C_slave.c"
   468 ;; Parameters:    Size  Location     Type
   469 ;;		None
   470 ;; Auto vars:     Size  Location     Type
   471 ;;		None
   472 ;; Return value:  Size  Location     Type
   473 ;;                  1    wreg      void 
   474 ;; Registers used:
   475 ;;		wreg, status,2
   476 ;; Tracked objects:
   477 ;;		On entry : 0/0
   478 ;;		On exit  : 0/0
   479 ;;		Unchanged: 0/0
   480 ;; Data sizes:     COMRAM   BANK0   BANK1   BANK2   BANK3   BANK4   BANK5   BANK6   BANK7
   481 ;;      Params:         0       0       0       0       0       0       0       0       0
   482 ;;      Locals:         0       0       0       0       0       0       0       0       0
   483 ;;      Temps:          0       0       0       0       0       0       0       0       0
   484 ;;      Totals:         0       0       0       0       0       0       0       0       0
   485 ;;Total ram usage:        0 bytes
   486 ;; Hardware stack levels used:    1
   487 ;; Hardware stack levels required when called:    1
   488 ;; This function calls:
   489 ;;		Nothing
   490 ;; This function is called by:
   491 ;;		_main
   492 ;; This function uses a non-reentrant model
   493 ;;
   494                           
   495                           	psect	text4
   496  00120E                     __ptext4:
   497                           	opt callstack 0
   498  00120E                     _init_Chip:
   499                           	opt callstack 29
   500  00120E                     
   501                           ;I2C_slave.c: 88:     LATA = 0x00;
   502  00120E  0E00               	movlw	0
   503  001210  6E89               	movwf	137,c	;volatile
   504  001212                     
   505                           ;I2C_slave.c: 89:     TRISA = 0xFF;
   506  001212  6892               	setf	146,c	;volatile
   507                           
   508                           ;I2C_slave.c: 90:     ADCON1 = 0x00;
   509  001214  0E00               	movlw	0
   510  001216  6EC1               	movwf	193,c	;volatile
   511                           
   512                           ;I2C_slave.c: 91:     ANSELA = 0x00;
   513  001218  0E00               	movlw	0
   514  00121A  010F               	movlb	15	; () banked
   515  00121C  6F5B               	movwf	91,b	;volatile
   516                           
   517                           ;I2C_slave.c: 92:     CM1CON0 = 0x00;
   518  00121E  0E00               	movlw	0
   519  001220  6E98               	movwf	152,c	;volatile
   520                           
   521                           ;I2C_slave.c: 93:     LATB = 0x00;
   522  001222  0E00               	movlw	0
   523  001224  6E8A               	movwf	138,c	;volatile
   524                           
   525                           ;I2C_slave.c: 94:     TRISB = 0x00;
   526  001226  0E00               	movlw	0
   527  001228  6E93               	movwf	147,c	;volatile
   528                           
   529                           ;I2C_slave.c: 95:     LATC = 0x00;
   530  00122A  0E00               	movlw	0
   531  00122C  6E8B               	movwf	139,c	;volatile
   532                           
   533                           ;I2C_slave.c: 96:     TRISC = 0x00;
   534  00122E  0E00               	movlw	0
   535  001230  6E94               	movwf	148,c	;volatile
   536  001232                     
   537                           ; BSR set to: 15
   538                           ;I2C_slave.c: 97:  INTCONbits.GIE = 0;
   539  001232  9EF2               	bcf	242,7,c	;volatile
   540  001234                     
   541                           ; BSR set to: 15
   542  001234  0012               	return		;funcret
   543  001236                     __end_of_init_Chip:
   544                           	opt callstack 0
   545                           
   546 ;; *************** function _init_ADC *****************
   547 ;; Defined at:
   548 ;;		line 122 in file "I2C_slave.c"
   549 ;; Parameters:    Size  Location     Type
   550 ;;		None
   551 ;; Auto vars:     Size  Location     Type
   552 ;;		None
   553 ;; Return value:  Size  Location     Type
   554 ;;                  1    wreg      void 
   555 ;; Registers used:
   556 ;;		wreg, status,2
   557 ;; Tracked objects:
   558 ;;		On entry : 0/0
   559 ;;		On exit  : 0/0
   560 ;;		Unchanged: 0/0
   561 ;; Data sizes:     COMRAM   BANK0   BANK1   BANK2   BANK3   BANK4   BANK5   BANK6   BANK7
   562 ;;      Params:         0       0       0       0       0       0       0       0       0
   563 ;;      Locals:         0       0       0       0       0       0       0       0       0
   564 ;;      Temps:          0       0       0       0       0       0       0       0       0
   565 ;;      Totals:         0       0       0       0       0       0       0       0       0
   566 ;;Total ram usage:        0 bytes
   567 ;; Hardware stack levels used:    1
   568 ;; Hardware stack levels required when called:    1
   569 ;; This function calls:
   570 ;;		Nothing
   571 ;; This function is called by:
   572 ;;		_main
   573 ;; This function uses a non-reentrant model
   574 ;;
   575                           
   576                           	psect	text5
   577  001274                     __ptext5:
   578                           	opt callstack 0
   579  001274                     _init_ADC:
   580                           	opt callstack 29
   581  001274                     
   582                           ;I2C_slave.c: 124:     ADCON0 = 0x01;
   583  001274  0E01               	movlw	1
   584  001276  6EC2               	movwf	194,c	;volatile
   585                           
   586                           ;I2C_slave.c: 125:     ADCON1 = 0x00;
   587  001278  0E00               	movlw	0
   588  00127A  6EC1               	movwf	193,c	;volatile
   589                           
   590                           ;I2C_slave.c: 126:     ADCON2 = 0x08;
   591  00127C  0E08               	movlw	8
   592  00127E  6EC0               	movwf	192,c	;volatile
   593  001280  0012               	return		;funcret
   594  001282                     __end_of_init_ADC:
   595                           	opt callstack 0
   596                           
   597 ;; *************** function _high_ISR *****************
   598 ;; Defined at:
   599 ;;		line 154 in file "I2C_slave.c"
   600 ;; Parameters:    Size  Location     Type
   601 ;;		None
   602 ;; Auto vars:     Size  Location     Type
   603 ;;		None
   604 ;; Return value:  Size  Location     Type
   605 ;;                  1    wreg      void 
   606 ;; Registers used:
   607 ;;		wreg, fsr1l, fsr1h, fsr2l, fsr2h, status,2, status,0
   608 ;; Tracked objects:
   609 ;;		On entry : 0/0
   610 ;;		On exit  : 0/0
   611 ;;		Unchanged: 0/0
   612 ;; Data sizes:     COMRAM   BANK0   BANK1   BANK2   BANK3   BANK4   BANK5   BANK6   BANK7
   613 ;;      Params:         0       0       0       0       0       0       0       0       0
   614 ;;      Locals:         0       0       0       0       0       0       0       0       0
   615 ;;      Temps:          4       0       0       0       0       0       0       0       0
   616 ;;      Totals:         4       0       0       0       0       0       0       0       0
   617 ;;Total ram usage:        4 bytes
   618 ;; Hardware stack levels used:    1
   619 ;; This function calls:
   620 ;;		Nothing
   621 ;; This function is called by:
   622 ;;		Interrupt level 2
   623 ;; This function uses a non-reentrant model
   624 ;;
   625                           
   626                           	psect	intcode
   627  001008                     __pintcode:
   628                           	opt callstack 0
   629  001008                     _high_ISR:
   630                           	opt callstack 29
   631                           
   632                           ;incstack = 0
   633  001008  8213               	bsf	int$flags,1,c	;set compiler interrupt flag (level 2)
   634  00100A  CFE1 F00D          	movff	fsr1l,??_high_ISR
   635  00100E  CFE2 F00E          	movff	fsr1h,??_high_ISR+1
   636  001012  CFD9 F00F          	movff	fsr2l,??_high_ISR+2
   637  001016  CFDA F010          	movff	fsr2h,??_high_ISR+3
   638  00101A                     
   639                           ;I2C_slave.c: 156:     if(PIR1bits.SSPIF==1){
   640  00101A  A69E               	btfss	158,3,c	;volatile
   641  00101C  EF12  F008         	goto	i2u1_41
   642  001020  EF14  F008         	goto	i2u1_40
   643  001024                     i2u1_41:
   644  001024  EF94  F008         	goto	i2l927
   645  001028                     i2u1_40:
   646  001028                     
   647                           ;I2C_slave.c: 159:         if((SSPSTAT&0x20)==0){
   648  001028  BAC7               	btfsc	199,5,c	;volatile
   649  00102A  EF19  F008         	goto	i2u2_41
   650  00102E  EF1B  F008         	goto	i2u2_40
   651  001032                     i2u2_41:
   652  001032  EF55  F008         	goto	i2l903
   653  001036                     i2u2_40:
   654  001036                     
   655                           ;I2C_slave.c: 161:             addr = SSPBUF;
   656  001036  CFC9 F00B          	movff	4041,_addr	;volatile
   657  00103A                     
   658                           ;I2C_slave.c: 162:             LATCbits.LATC7 ^= 1;
   659  00103A  7E8B               	btg	139,7,c	;volatile
   660  00103C                     
   661                           ;I2C_slave.c: 165:             if(SSPSTATbits.R_nW){
   662  00103C  A4C7               	btfss	199,2,c	;volatile
   663  00103E  EF23  F008         	goto	i2u3_41
   664  001042  EF25  F008         	goto	i2u3_40
   665  001046                     i2u3_41:
   666  001046  EF4F  F008         	goto	i2l901
   667  00104A                     i2u3_40:
   668  00104A                     
   669                           ;I2C_slave.c: 166:                 I2Cstatus = 1;
   670  00104A  0E01               	movlw	1
   671  00104C  6E07               	movwf	_I2Cstatus^0,c
   672  00104E                     
   673                           ;I2C_slave.c: 168:                 if((I2Cstatus==1)&&(Txbuf.idx<2))
   674  00104E  0407               	decf	_I2Cstatus^0,w,c
   675  001050  A4D8               	btfss	status,2,c
   676  001052  EF2D  F008         	goto	i2u4_41
   677  001056  EF2F  F008         	goto	i2u4_40
   678  00105A                     i2u4_41:
   679  00105A  EF90  F008         	goto	i2l919
   680  00105E                     i2u4_40:
   681  00105E  0E02               	movlw	2
   682  001060  6006               	cpfslt	(_Txbuf+2)^0,c
   683  001062  EF35  F008         	goto	i2u5_41
   684  001066  EF37  F008         	goto	i2u5_40
   685  00106A                     i2u5_41:
   686  00106A  EF90  F008         	goto	i2l919
   687  00106E                     i2u5_40:
   688  00106E                     
   689                           ;I2C_slave.c: 169:                 {;I2C_slave.c: 170:                     SSPBUF = Txbu
      +                          f.data[Txbuf.idx];
   690  00106E  0E04               	movlw	low _Txbuf
   691  001070  2406               	addwf	(_Txbuf+2)^0,w,c
   692  001072  6ED9               	movwf	fsr2l,c
   693  001074  6ADA               	clrf	fsr2h,c
   694  001076  0E00               	movlw	high _Txbuf
   695  001078  22DA               	addwfc	fsr2h,f,c
   696  00107A  50DF               	movf	indf2,w,c
   697  00107C  6EC9               	movwf	201,c	;volatile
   698  00107E                     
   699                           ;I2C_slave.c: 172:                     Txbuf.idx++;
   700  00107E  2A06               	incf	(_Txbuf+2)^0,f,c
   701  001080                     
   702                           ;I2C_slave.c: 173:                     if(Txbuf.idx==2){
   703  001080  0E02               	movlw	2
   704  001082  1806               	xorwf	(_Txbuf+2)^0,w,c
   705  001084  A4D8               	btfss	status,2,c
   706  001086  EF47  F008         	goto	i2u6_41
   707  00108A  EF49  F008         	goto	i2u6_40
   708  00108E                     i2u6_41:
   709  00108E  EF53  F008         	goto	i2l138
   710  001092                     i2u6_40:
   711  001092                     
   712                           ;I2C_slave.c: 175:                         I2Cstatus = 0;
   713  001092  0E00               	movlw	0
   714  001094  6E07               	movwf	_I2Cstatus^0,c
   715                           
   716                           ;I2C_slave.c: 176:                         Txbuf.idx = 0;
   717  001096  0E00               	movlw	0
   718  001098  6E06               	movwf	(_Txbuf+2)^0,c
   719  00109A  EF90  F008         	goto	i2l919
   720  00109E                     i2l901:
   721                           
   722                           ;I2C_slave.c: 182:                 I2Cstatus = 2;
   723  00109E  0E02               	movlw	2
   724  0010A0  6E07               	movwf	_I2Cstatus^0,c
   725  0010A2  EF90  F008         	goto	i2l919
   726  0010A6                     i2l138:
   727                           
   728                           ;I2C_slave.c: 185:         }
   729  0010A6  EF90  F008         	goto	i2l919
   730  0010AA                     i2l903:
   731                           
   732                           ;I2C_slave.c: 188:             if((I2Cstatus==2)&&(Rxbuf.idx<2)){
   733  0010AA  0E02               	movlw	2
   734  0010AC  1807               	xorwf	_I2Cstatus^0,w,c
   735  0010AE  A4D8               	btfss	status,2,c
   736  0010B0  EF5C  F008         	goto	i2u7_41
   737  0010B4  EF5E  F008         	goto	i2u7_40
   738  0010B8                     i2u7_41:
   739  0010B8  EF8C  F008         	goto	i2l917
   740  0010BC                     i2u7_40:
   741  0010BC  0E02               	movlw	2
   742  0010BE  6003               	cpfslt	(_Rxbuf+2)^0,c
   743  0010C0  EF64  F008         	goto	i2u8_41
   744  0010C4  EF66  F008         	goto	i2u8_40
   745  0010C8                     i2u8_41:
   746  0010C8  EF8C  F008         	goto	i2l917
   747  0010CC                     i2u8_40:
   748  0010CC                     
   749                           ;I2C_slave.c: 189:                 Rxbuf.data[Rxbuf.idx] = SSPBUF;
   750  0010CC  0E01               	movlw	low _Rxbuf
   751  0010CE  2403               	addwf	(_Rxbuf+2)^0,w,c
   752  0010D0  6ED9               	movwf	fsr2l,c
   753  0010D2  6ADA               	clrf	fsr2h,c
   754  0010D4  0E00               	movlw	high _Rxbuf
   755  0010D6  22DA               	addwfc	fsr2h,f,c
   756  0010D8  CFC9 FFDF          	movff	4041,indf2	;volatile
   757  0010DC                     
   758                           ;I2C_slave.c: 191:                 Txbuf.data[Rxbuf.idx] = Rxbuf.data[Rxbuf.idx];
   759  0010DC  0E01               	movlw	low _Rxbuf
   760  0010DE  2403               	addwf	(_Rxbuf+2)^0,w,c
   761  0010E0  6ED9               	movwf	fsr2l,c
   762  0010E2  6ADA               	clrf	fsr2h,c
   763  0010E4  0E00               	movlw	high _Rxbuf
   764  0010E6  22DA               	addwfc	fsr2h,f,c
   765  0010E8  0E04               	movlw	low _Txbuf
   766  0010EA  2403               	addwf	(_Rxbuf+2)^0,w,c
   767  0010EC  6EE1               	movwf	fsr1l,c
   768  0010EE  6AE2               	clrf	fsr1h,c
   769  0010F0  0E00               	movlw	high _Txbuf
   770  0010F2  22E2               	addwfc	fsr1h,f,c
   771  0010F4  CFDF FFE7          	movff	indf2,indf1
   772  0010F8                     
   773                           ;I2C_slave.c: 192:                 Rxbuf.idx++;
   774  0010F8  2A03               	incf	(_Rxbuf+2)^0,f,c
   775  0010FA                     
   776                           ;I2C_slave.c: 193:                 if(Rxbuf.idx==2){
   777  0010FA  0E02               	movlw	2
   778  0010FC  1803               	xorwf	(_Rxbuf+2)^0,w,c
   779  0010FE  A4D8               	btfss	status,2,c
   780  001100  EF84  F008         	goto	i2u9_41
   781  001104  EF86  F008         	goto	i2u9_40
   782  001108                     i2u9_41:
   783  001108  EF90  F008         	goto	i2l919
   784  00110C                     i2u9_40:
   785  00110C                     
   786                           ;I2C_slave.c: 194:                     Rxbuf.idx = 0;
   787  00110C  0E00               	movlw	0
   788  00110E  6E03               	movwf	(_Rxbuf+2)^0,c
   789                           
   790                           ;I2C_slave.c: 195:                     I2Cstatus = 0;
   791  001110  0E00               	movlw	0
   792  001112  6E07               	movwf	_I2Cstatus^0,c
   793  001114  EF90  F008         	goto	i2l919
   794  001118                     i2l917:
   795                           
   796                           ;I2C_slave.c: 199:                 I2Cstatus = 0;
   797  001118  0E00               	movlw	0
   798  00111A  6E07               	movwf	_I2Cstatus^0,c
   799                           
   800                           ;I2C_slave.c: 200:                 Rxbuf.idx = 0;
   801  00111C  0E00               	movlw	0
   802  00111E  6E03               	movwf	(_Rxbuf+2)^0,c
   803  001120                     i2l919:
   804                           
   805                           ;I2C_slave.c: 204:         SSPCON1bits.SSPOV = 0;
   806  001120  9CC6               	bcf	198,6,c	;volatile
   807  001122                     
   808                           ;I2C_slave.c: 205:         SSPCON1bits.WCOL = 0;
   809  001122  9EC6               	bcf	198,7,c	;volatile
   810  001124                     
   811                           ;I2C_slave.c: 206:         PIR1bits.SSPIF = 0;
   812  001124  969E               	bcf	158,3,c	;volatile
   813  001126                     
   814                           ;I2C_slave.c: 207:         SSPCON1bits.CKP = 1;
   815  001126  88C6               	bsf	198,4,c	;volatile
   816  001128                     i2l927:
   817                           
   818                           ;I2C_slave.c: 210:     if(PIR1bits.ADIF==1){
   819  001128  AC9E               	btfss	158,6,c	;volatile
   820  00112A  EF99  F008         	goto	i2u10_41
   821  00112E  EF9B  F008         	goto	i2u10_40
   822  001132                     i2u10_41:
   823  001132  EFA0  F008         	goto	i2l143
   824  001136                     i2u10_40:
   825  001136                     
   826                           ;I2C_slave.c: 212:         PIR1bits.ADIF = 0;
   827  001136  9C9E               	bcf	158,6,c	;volatile
   828                           
   829                           ;I2C_slave.c: 213:         Txbuf.data[0] = ADRESH;
   830  001138  CFC4 F004          	movff	4036,_Txbuf	;volatile
   831                           
   832                           ;I2C_slave.c: 215:         Txbuf.data[1] = PORTA;
   833  00113C  CF80 F005          	movff	3968,_Txbuf+1	;volatile
   834  001140                     i2l143:
   835                           
   836                           ;I2C_slave.c: 218:     if(PIR1bits.TMR2IF==1)
   837  001140  A29E               	btfss	158,1,c	;volatile
   838  001142  EFA5  F008         	goto	i2u11_41
   839  001146  EFA7  F008         	goto	i2u11_40
   840  00114A                     i2u11_41:
   841  00114A  EFAC  F008         	goto	i2l939
   842  00114E                     i2u11_40:
   843  00114E                     
   844                           ;I2C_slave.c: 219:     {;I2C_slave.c: 221:         PIR1bits.TMR2IF==0;
   845  00114E  509E               	movf	158,w,c	;volatile
   846  001150                     
   847                           ;I2C_slave.c: 222:         LATBbits.LATB2 ^= 1;
   848  001150  748A               	btg	138,2,c	;volatile
   849  001152                     
   850                           ;I2C_slave.c: 223:         TMR2 = 0;
   851  001152  0E00               	movlw	0
   852  001154  6EBC               	movwf	188,c	;volatile
   853  001156                     
   854                           ;I2C_slave.c: 224:         PR2 = 0xff;
   855  001156  68BB               	setf	187,c	;volatile
   856  001158                     i2l939:
   857                           
   858                           ;I2C_slave.c: 228:     if(INTCONbits.TMR0IF == 1){
   859  001158  A4F2               	btfss	242,2,c	;volatile
   860  00115A  EFB1  F008         	goto	i2u12_41
   861  00115E  EFB3  F008         	goto	i2u12_40
   862  001162                     i2u12_41:
   863  001162  EFC6  F008         	goto	i2l147
   864  001166                     i2u12_40:
   865  001166                     
   866                           ;I2C_slave.c: 229:         TMR0H = 0x4C;
   867  001166  0E4C               	movlw	76
   868  001168  6ED7               	movwf	215,c	;volatile
   869                           
   870                           ;I2C_slave.c: 230:         TMR0L = 0xB0;
   871  00116A  0EB0               	movlw	176
   872  00116C  6ED6               	movwf	214,c	;volatile
   873  00116E                     
   874                           ;I2C_slave.c: 231:         INTCONbits.TMR0IF=0;
   875  00116E  94F2               	bcf	242,2,c	;volatile
   876  001170                     
   877                           ;I2C_slave.c: 232:         ADCON0bits.GODONE = 1;
   878  001170  82C2               	bsf	194,1,c	;volatile
   879  001172                     
   880                           ;I2C_slave.c: 233:         T0count++;
   881  001172  2A08               	incf	_T0count^0,f,c
   882  001174                     
   883                           ;I2C_slave.c: 234:         if(T0count==T0Thres){
   884  001174  5011               	movf	_T0Thres^0,w,c
   885  001176  1808               	xorwf	_T0count^0,w,c
   886  001178  A4D8               	btfss	status,2,c
   887  00117A  EFC1  F008         	goto	i2u13_41
   888  00117E  EFC3  F008         	goto	i2u13_40
   889  001182                     i2u13_41:
   890  001182  EFC6  F008         	goto	i2l147
   891  001186                     i2u13_40:
   892  001186                     
   893                           ;I2C_slave.c: 235:             LATBbits.LATB7 ^= 1;
   894  001186  7E8A               	btg	138,7,c	;volatile
   895  001188                     
   896                           ;I2C_slave.c: 236:             T0count = 0;
   897  001188  0E00               	movlw	0
   898  00118A  6E08               	movwf	_T0count^0,c
   899  00118C                     i2l147:
   900  00118C  C010  FFDA         	movff	??_high_ISR+3,fsr2h
   901  001190  C00F  FFD9         	movff	??_high_ISR+2,fsr2l
   902  001194  C00E  FFE2         	movff	??_high_ISR+1,fsr1h
   903  001198  C00D  FFE1         	movff	??_high_ISR,fsr1l
   904  00119C  9213               	bcf	int$flags,1,c	;clear compiler interrupt flag (level 2)
   905  00119E  0011               	retfie		f
   906  0011A0                     __end_of_high_ISR:
   907                           	opt callstack 0
   908  0000                     
   909                           	psect	rparam
   910  0000                     
   911                           	psect	temp
   912  000013                     btemp:
   913                           	opt callstack 0
   914  000013                     	ds	1
   915  0000                     int$flags	set	btemp
   916  0000                     wtemp8	set	btemp+1
   917  0000                     ttemp5	set	btemp+1
   918  0000                     ttemp6	set	btemp+4
   919  0000                     ttemp7	set	btemp+8
   920                           tosu	equ	0xFFF
   921                           tosh	equ	0xFFE
   922                           tosl	equ	0xFFD
   923                           stkptr	equ	0xFFC
   924                           pclatu	equ	0xFFB
   925                           pclath	equ	0xFFA
   926                           pcl	equ	0xFF9
   927                           tblptru	equ	0xFF8
   928                           tblptrh	equ	0xFF7
   929                           tblptrl	equ	0xFF6
   930                           tablat	equ	0xFF5
   931                           prodh	equ	0xFF4
   932                           prodl	equ	0xFF3
   933                           indf0	equ	0xFEF
   934                           postinc0	equ	0xFEE
   935                           postdec0	equ	0xFED
   936                           preinc0	equ	0xFEC
   937                           plusw0	equ	0xFEB
   938                           fsr0h	equ	0xFEA
   939                           fsr0l	equ	0xFE9
   940                           wreg	equ	0xFE8
   941                           indf1	equ	0xFE7
   942                           postinc1	equ	0xFE6
   943                           postdec1	equ	0xFE5
   944                           preinc1	equ	0xFE4
   945                           plusw1	equ	0xFE3
   946                           fsr1h	equ	0xFE2
   947                           fsr1l	equ	0xFE1
   948                           bsr	equ	0xFE0
   949                           indf2	equ	0xFDF
   950                           postinc2	equ	0xFDE
   951                           postdec2	equ	0xFDD
   952                           preinc2	equ	0xFDC
   953                           plusw2	equ	0xFDB
   954                           fsr2h	equ	0xFDA
   955                           fsr2l	equ	0xFD9
   956                           status	equ	0xFD8


Data Sizes:
    Strings     0
    Constant    0
    Data        2
    BSS         12
    Persistent  0
    Stack       0

Auto Spaces:
    Space          Size  Autos    Used
    COMRAM           94      4      18
    BANK0           160      0       0
    BANK1           256      0       0
    BANK2           256      0       0
    BANK3           256      0       0
    BANK4           256      0       0
    BANK5           256      0       0
    BANK6           256      0       0
    BANK7           256      0       0

Pointer List with Targets:

    None.

Critical Paths under _main in COMRAM

    None.

Critical Paths under _high_ISR in COMRAM

    None.

Critical Paths under _main in BANK0

    None.

Critical Paths under _high_ISR in BANK0

    None.

Critical Paths under _main in BANK1

    None.

Critical Paths under _high_ISR in BANK1

    None.

Critical Paths under _main in BANK2

    None.

Critical Paths under _high_ISR in BANK2

    None.

Critical Paths under _main in BANK3

    None.

Critical Paths under _high_ISR in BANK3

    None.

Critical Paths under _main in BANK4

    None.

Critical Paths under _high_ISR in BANK4

    None.

Critical Paths under _main in BANK5

    None.

Critical Paths under _high_ISR in BANK5

    None.

Critical Paths under _main in BANK6

    None.

Critical Paths under _high_ISR in BANK6

    None.

Critical Paths under _main in BANK7

    None.

Critical Paths under _high_ISR in BANK7

    None.

Call Graph Tables:

 ---------------------------------------------------------------------------------
 (Depth) Function   	        Calls       Base Space   Used Autos Params    Refs
 ---------------------------------------------------------------------------------
 (0) _main                                                 0     0      0       0
                           _init_ADC
                          _init_Chip
                           _init_I2C
                           _init_TM0
                           _init_TM2
 ---------------------------------------------------------------------------------
 (1) _init_TM2                                             0     0      0       0
 ---------------------------------------------------------------------------------
 (1) _init_TM0                                             0     0      0       0
 ---------------------------------------------------------------------------------
 (1) _init_I2C                                             0     0      0       0
 ---------------------------------------------------------------------------------
 (1) _init_Chip                                            0     0      0       0
 ---------------------------------------------------------------------------------
 (1) _init_ADC                                             0     0      0       0
 ---------------------------------------------------------------------------------
 Estimated maximum stack depth 1
 ---------------------------------------------------------------------------------
 (Depth) Function   	        Calls       Base Space   Used Autos Params    Refs
 ---------------------------------------------------------------------------------
 (2) _high_ISR                                             4     4      0       0
                                              0 COMRAM     4     4      0
 ---------------------------------------------------------------------------------
 Estimated maximum stack depth 2
 ---------------------------------------------------------------------------------

 Call Graph Graphs:

 _main (ROOT)
   _init_ADC
   _init_Chip
   _init_I2C
   _init_TM0
   _init_TM2

 _high_ISR (ROOT)

 Address spaces:
Name               Size   Autos  Total    Cost      Usage
BIGRAM             7FF      0       0      21        0.0%
EEDATA             100      0       0       0        0.0%
BITBANK7           100      0       0      19        0.0%
BANK7              100      0       0      20        0.0%
BITBANK6           100      0       0      17        0.0%
BANK6              100      0       0      18        0.0%
BITBANK5           100      0       0      15        0.0%
BANK5              100      0       0      16        0.0%
BITBANK4           100      0       0      13        0.0%
BANK4              100      0       0      14        0.0%
BITBANK3           100      0       0      11        0.0%
BANK3              100      0       0      12        0.0%
BITBANK2           100      0       0       9        0.0%
BANK2              100      0       0      10        0.0%
BITBANK1           100      0       0       7        0.0%
BANK1              100      0       0       8        0.0%
BITBANK0            A0      0       0       4        0.0%
BANK0               A0      0       0       5        0.0%
BITCOMRAM           5E      0       0       0        0.0%
COMRAM              5E      4      12       1       19.1%
BITSFR_1             0      0       0     200        0.0%
SFR_1                0      0       0     200        0.0%
BITSFR               0      0       0     200        0.0%
SFR                  0      0       0     200        0.0%
STACK                0      0       0       2        0.0%
NULL                 0      0       0       0        0.0%
ABS                  0      0      12       6        0.0%
DATA                 0      0      12       3        0.0%
CODE                 0      0       0       0        0.0%


Microchip Technology PIC18 Macro Assembler V2.10 build 88905656 
Symbol Table                                                                                   Tue Apr 14 11:45:05 2020

            _SSPSTATbits 000FC7                      l113 1234                      l122 1280  
                    l116 124E                      l125 1260                      l128 1272  
                    l823 120E                      l831 123A                      l825 1212  
                    l833 124A                      l841 1252                      l827 1232  
                    l835 124C                      l843 1256                      l851 11A4  
                    l837 1274                      l829 1236                      l845 1262  
                    l861 11C6                      l853 11B8                      l847 126E  
                    l839 1250                      l863 11CA                      l855 11BC  
                    l849 1270                      l865 11CC                      l857 11C0  
                    l867 11CE                      l859 11C2                      l869 11D6  
                    u147 11D0                      _PR2 000FBB                      wreg 000FE8  
                   _LATA 000F89                     _LATB 000F8A                     _LATC 000F8B  
                   _TMR2 000FBC                     _addr 000B                     _data 000C  
                   _main 11A4                     _sent 0012                     fsr1h 000FE2  
                   fsr2h 000FDA                     indf1 000FE7                     indf2 000FDF  
                   fsr1l 000FE1                     fsr2l 000FD9                     btemp 0013  
                   start 11A0             ___param_bank 000000                    ?_main 000D  
                  _T0CON 000FD5                    _T2CON 000FBA                    i2l143 1140  
                  i2l138 10A6                    i2l147 118C                    i2l901 109E  
                  i2l911 10F8                    i2l903 10AA                    i2l921 1122  
                  i2l913 10FA                    i2l905 10BC                    i2l931 114E  
                  i2l923 1124                    i2l915 110C                    i2l907 10CC  
                  i2l941 1166                    i2l933 1150                    i2l925 1126  
                  i2l909 10DC                    i2l917 1118                    i2l951 1186  
                  i2l943 116E                    i2l935 1152                    i2l919 1120  
                  i2l927 1128                    i2l953 1188                    i2l945 1170  
                  i2l937 1156                    i2l929 1136                    i2l881 1036  
                  i2l947 1172                    i2l939 1158                    i2l891 105E  
                  i2l883 103A                    i2l949 1174                    i2l893 106E  
                  i2l885 103C                    i2l877 101A                    i2l895 107E  
                  i2l887 104A                    i2l879 1028                    i2l897 1080  
                  i2l889 104E                    i2l899 1092                    _TMR0H 000FD7  
                  _TMR0L 000FD6                    _PORTA 000F80                    _TRISA 000F92  
                  _TRISB 000F93                    _TRISC 000F94                    _Rxbuf 0001  
                  _Txbuf 0004                    tablat 000FF5                    ttemp5 0014  
                  ttemp6 0017                    ttemp7 001B                    status 000FD8  
                  wtemp8 0014          __initialization 11E0             __end_of_main 11E0  
                 ??_main 0011            __activetblptr 000000                   _ADCON0 000FC2  
                 _ADCON1 000FC1                   _ADCON2 000FC0                   _ADRESH 000FC4  
                 _ANSELA 000F5B                   i2u1_40 1028                   i2u1_41 1024  
                 i2u2_40 1036                   i2u2_41 1032                   i2u3_40 104A  
                 i2u3_41 1046                   i2u4_40 105E                   i2u4_41 105A  
                 i2u5_40 106E                   i2u5_41 106A                   i2u6_40 1092  
                 i2u6_41 108E                   i2u7_40 10BC                   i2u7_41 10B8  
                 _SSPADD 000FC8                   i2u8_40 10CC                   i2u8_41 10C8  
                 i2u9_40 110C                   i2u9_41 1108                   _SSPBUF 000FC9  
       __end_of_high_ISR 11A0         __end_of_init_I2C 1250         __end_of_init_ADC 1282  
       __end_of_init_TM0 1274         __end_of_init_TM2 1262                   clear_0 11FE  
           __pdataCOMRAM 0011                   tblptrh 000FF7                   tblptrl 000FF6  
                 tblptru 000FF8               __accesstop 0060  __end_of__initialization 1204  
          ___rparam_used 000001           __pcstackCOMRAM 000D       __size_of_init_Chip 0028  
                _CM1CON0 000F98                  _T0Thres 0011                  i2u10_40 1136  
                i2u10_41 1132                  i2u11_40 114E                  i2u11_41 114A  
                i2u12_40 1166                  i2u12_41 1162                  i2u13_40 1186  
                i2u13_41 1182                  _T0count 0008                ?_high_ISR 000D  
                _SSPCON1 000FC6                  _SSPCON2 000FC5                  _SSPSTAT 000FC7  
              ?_init_I2C 000D                ?_init_ADC 000D                ?_init_TM0 000D  
              ?_init_TM2 000D                  __Hparam 0000                  __Lparam 0000  
              _I2Cstatus 0007                  __pcinit 11E0                  __ramtop 0800  
                __ptext0 11A4                  __ptext1 1250                  __ptext2 1262  
                __ptext3 1236                  __ptext4 120E                  __ptext5 1274  
              _T0CONbits 000FD5        __end_of_init_Chip 1236                _T2CONbits 000FBA  
             ??_high_ISR 000D     end_of_initialization 1204               ??_init_I2C 0011  
             ??_init_ADC 0011               ??_init_TM0 0011               ??_init_TM2 0011  
                postinc0 000FEE                _TRISBbits 000F93            __pidataCOMRAM 1282  
    start_initialization 11E0              __pbssCOMRAM 0001        __size_of_high_ISR 0198  
      __size_of_init_I2C 001A        __size_of_init_ADC 000E        __size_of_init_TM0 0012  
      __size_of_init_TM2 0012                _data_past 000A                __pintcode 1008  
              _init_Chip 120E                 _LATBbits 000F8A                 _LATCbits 000F8B  
               _PIE1bits 000F9D                 _PIR1bits 000F9E               _ADCON0bits 000FC2  
             ?_init_Chip 000D                 __Hrparam 0000                 __Lrparam 0000  
               _RxStatus 0009                 _high_ISR 1008                 _init_I2C 1236  
               _init_ADC 1274                 _init_TM0 1262                 _init_TM2 1250  
          __size_of_main 003C                 int$flags 0013               _INTCONbits 000FF2  
            ??_init_Chip 0011                 intlevel2 0000              _SSPCON1bits 000FC6  
